ccopy_reg
_reconstructor
p0
(cdigits.model.images.classification.job
ImageClassificationModelJob
p1
c__builtin__
object
p2
Ntp3
Rp4
(dp5
S'_notes'
p6
NsS'exception'
p7
NsS'tasks'
p8
(lp9
g0
(cdigits.model.tasks.caffe_train
CaffeTrainTask
p10
g2
Ntp11
Rp12
(dp13
S'shuffle'
p14
I01
sS'snapshot_interval'
p15
F1.0
sS'framework_id'
p16
S'caffe'
p17
sS'train_outputs'
p18
ccollections
OrderedDict
p19
((lp20
(lp21
S'epoch'
p22
ag0
(cdigits.model.tasks.train
NetworkOutput
p23
c__builtin__
tuple
p24
(S'Epoch'
p25
(lp26
I0
aF0.125
aF0.25
aF0.375
aF0.5
aF0.625
aF0.75
aF0.875
aF1.0
aF1.125
aF1.25
aF1.375
aF1.5
aF1.625
aF1.75
aF1.875
aF2.0
aF2.125
aF2.25
aF2.375
aF2.5
aF2.625
aF2.75
aF2.875
aF3.0
aF3.125
aF3.25
aF3.375
aF3.5
aF3.625
aF3.75
aF3.875
aF4.0
aF4.125
aF4.25
aF4.375
aF4.5
aF4.625
aF4.75
aF4.875
aF5.0
aF5.125
aF5.25
aF5.375
aF5.5
aF5.625
aF5.75
aF5.875
aF6.0
aF6.125
aF6.25
aF6.375
aF6.5
aF6.625
aF6.75
aF6.875
aF7.0
aF7.125
aF7.25
aF7.375
aF7.5
aF7.625
aF7.75
aF7.875
aF8.0
aF8.125
aF8.25
aF8.375
aF8.5
aF8.625
aF8.75
aF8.875
aF9.0
aF9.125
aF9.25
aF9.375
aF9.5
aF9.625
aF9.75
aF9.875
aF10.0
aF10.125
aF10.25
aF10.375
aF10.5
aF10.625
aF10.75
aF10.875
aF11.0
aF11.125
aF11.25
aF11.375
aF11.5
aF11.625
aF11.75
aF11.875
aF12.0
aF12.125
aF12.25
aF12.375
aF12.5
aF12.625
aF12.75
aF12.875
aF13.0
aF13.125
aF13.25
aF13.375
aF13.5
aF13.625
aF13.75
aF13.875
aF14.0
aF14.125
aF14.25
aF14.375
aF14.5
aF14.625
aF14.75
aF14.875
aF15.0
aF15.125
aF15.25
aF15.375
aF15.5
aF15.625
aF15.75
aF15.875
aF16.0
aF16.125
aF16.25
aF16.375
aF16.5
aF16.625
aF16.75
aF16.875
aF17.0
aF17.125
aF17.25
aF17.375
aF17.5
aF17.625
aF17.75
aF17.875
aF18.0
aF18.125
aF18.25
aF18.375
aF18.5
aF18.625
aF18.75
aF18.875
aF19.0
aF19.125
aF19.25
aF19.375
aF19.5
aF19.625
aF19.75
aF19.875
aF20.0
aF20.125
aF20.25
aF20.375
aF20.5
aF20.625
aF20.75
aF20.875
aF21.0
aF21.125
aF21.25
aF21.375
aF21.5
aF21.625
aF21.75
aF21.875
aF22.0
aF22.125
aF22.25
aF22.375
aF22.5
aF22.625
aF22.75
aF22.875
aF23.0
aF23.125
aF23.25
aF23.375
aF23.5
aF23.625
aF23.75
aF23.875
aF24.0
aF24.125
aF24.25
aF24.375
aF24.5
aF24.625
aF24.75
aF24.875
aF25.0
aF25.125
aF25.25
aF25.375
aF25.5
aF25.625
aF25.75
aF25.875
aF26.0
aF26.125
aF26.25
aF26.375
aF26.5
aF26.625
aF26.75
aF26.875
aF27.0
aF27.125
aF27.25
aF27.375
aF27.5
aF27.625
aF27.75
aF27.875
aF28.0
aF28.125
aF28.25
aF28.375
aF28.5
aF28.625
aF28.75
aF28.875
aF29.0
aF29.125
aF29.25
aF29.375
aF29.5
aF29.625
aF29.75
aF29.875
atp27
tp28
Rp29
aa(lp30
S'loss'
p31
ag0
(g23
g24
(S'SoftmaxWithLoss'
p32
(lp33
F2.92848
aF2.14129
aF1.92248
aF2.07208
aF1.67994
aF1.6145
aF1.61006
aF1.38462
aF1.17968
aF1.28076
aF1.17367
aF1.67202
aF1.31468
aF1.04338
aF1.07372
aF1.3504
aF1.16234
aF1.16379
aF1.05518
aF1.02829
aF0.82899
aF1.09712
aF0.773018
aF1.10203
aF1.29329
aF0.903302
aF0.840129
aF0.694053
aF0.616205
aF0.934814
aF0.585664
aF0.763297
aF0.741744
aF0.633994
aF0.699332
aF0.451297
aF0.445767
aF0.585754
aF0.524369
aF0.626897
aF0.327632
aF0.472789
aF0.462006
aF0.191471
aF0.46785
aF0.41337
aF0.347918
aF0.422676
aF0.379836
aF0.244298
aF0.281247
aF0.338227
aF0.349978
aF0.391102
aF0.268159
aF0.385261
aF0.306585
aF0.169364
aF0.090735
aF0.338386
aF0.315614
aF0.25973
aF0.175686
aF0.377312
aF0.172996
aF0.322604
aF0.206481
aF0.20293
aF0.193425
aF0.273148
aF0.255796
aF0.321467
aF0.135504
aF0.192235
aF0.0742917
aF0.222524
aF0.273497
aF0.14028
aF0.112591
aF0.0447906
aF0.349199
aF0.382186
aF0.149222
aF0.0694691
aF0.0770863
aF0.0736162
aF0.0995418
aF0.0179437
aF0.0461566
aF0.0481895
aF0.0394436
aF0.0297325
aF0.0409568
aF0.0255772
aF0.028485
aF0.0187928
aF0.0341515
aF0.0163961
aF0.0540759
aF0.0214807
aF0.052147
aF0.0111342
aF0.0104221
aF0.0112295
aF0.0227137
aF0.0141617
aF0.0153054
aF0.0189887
aF0.0224057
aF0.00896148
aF0.00912114
aF0.00921136
aF0.0128719
aF0.0194671
aF0.0130202
aF0.00908283
aF0.00765221
aF0.00969755
aF0.0105647
aF0.0262943
aF0.0176783
aF0.0129232
aF0.0120623
aF0.0108486
aF0.00700084
aF0.00669614
aF0.0162054
aF0.015972
aF0.0145462
aF0.00894595
aF0.0103531
aF0.00764918
aF0.0054076
aF0.0097694
aF0.0100364
aF0.0092038
aF0.00985002
aF0.00973106
aF0.0116183
aF0.00696224
aF0.00639933
aF0.00659795
aF0.0042675
aF0.00955797
aF0.00952986
aF0.0114385
aF0.00898418
aF0.00715627
aF0.00841911
aF0.00522948
aF0.00359298
aF0.00809028
aF0.009497
aF0.00944907
aF0.0066537
aF0.00878872
aF0.00959621
aF0.0076664
aF0.00386824
aF0.00701366
aF0.00547987
aF0.00624399
aF0.00666802
aF0.0111567
aF0.00731849
aF0.00783098
aF0.00502674
aF0.00963512
aF0.00501695
aF0.00580876
aF0.00545371
aF0.0113448
aF0.00650564
aF0.00502237
aF0.00602467
aF0.00959273
aF0.00596969
aF0.00749033
aF0.00603143
aF0.00913241
aF0.00475665
aF0.00274974
aF0.00782774
aF0.0106077
aF0.00589616
aF0.00573167
aF0.00713653
aF0.00410045
aF0.00424936
aF0.00306371
aF0.00773896
aF0.0116397
aF0.00644805
aF0.00646972
aF0.00791451
aF0.00421839
aF0.0076679
aF0.00422159
aF0.00426556
aF0.00900979
aF0.0077892
aF0.00816993
aF0.00569629
aF0.00584691
aF0.00934151
aF0.0047478
aF0.00551057
aF0.0055356
aF0.00666999
aF0.0128645
aF0.00449674
aF0.00720299
aF0.0103251
aF0.00700369
aF0.00668767
aF0.00557437
aF0.00633533
aF0.0131395
aF0.00435111
aF0.00834373
aF0.00924662
aF0.00768401
aF0.00838712
aF0.00528822
aF0.0079081
aF0.0101802
aF0.00574302
aF0.0059391
aF0.00822424
aF0.00488002
aF0.00795015
aF0.00873895
aF0.00840159
aF0.00628621
aF0.00842135
aF0.00634264
aF0.00704658
aF0.00326276
aF0.00732469
aF0.00920925
atp34
tp35
Rp36
aa(lp37
S'learning_rate'
p38
ag0
(g23
g24
(S'LearningRate'
p39
(lp40
F0.01
aF0.01
aF0.01
aF0.01
aF0.01
aF0.01
aF0.01
aF0.01
aF0.01
aF0.01
aF0.01
aF0.01
aF0.01
aF0.01
aF0.01
aF0.01
aF0.01
aF0.01
aF0.01
aF0.01
aF0.01
aF0.01
aF0.01
aF0.01
aF0.01
aF0.01
aF0.01
aF0.01
aF0.01
aF0.01
aF0.01
aF0.01
aF0.01
aF0.01
aF0.01
aF0.01
aF0.01
aF0.01
aF0.01
aF0.01
aF0.01
aF0.01
aF0.01
aF0.01
aF0.01
aF0.01
aF0.01
aF0.01
aF0.01
aF0.01
aF0.01
aF0.01
aF0.01
aF0.01
aF0.01
aF0.01
aF0.01
aF0.01
aF0.01
aF0.01
aF0.01
aF0.01
aF0.01
aF0.01
aF0.01
aF0.01
aF0.01
aF0.01
aF0.01
aF0.01
aF0.01
aF0.01
aF0.01
aF0.01
aF0.01
aF0.01
aF0.01
aF0.01
aF0.01
aF0.01
aF0.001
aF0.001
aF0.001
aF0.001
aF0.001
aF0.001
aF0.001
aF0.001
aF0.001
aF0.001
aF0.001
aF0.001
aF0.001
aF0.001
aF0.001
aF0.001
aF0.001
aF0.001
aF0.001
aF0.001
aF0.001
aF0.001
aF0.001
aF0.001
aF0.001
aF0.001
aF0.001
aF0.001
aF0.001
aF0.001
aF0.001
aF0.001
aF0.001
aF0.001
aF0.001
aF0.001
aF0.001
aF0.001
aF0.001
aF0.001
aF0.001
aF0.001
aF0.001
aF0.001
aF0.001
aF0.001
aF0.001
aF0.001
aF0.001
aF0.001
aF0.001
aF0.001
aF0.001
aF0.001
aF0.001
aF0.001
aF0.001
aF0.001
aF0.001
aF0.001
aF0.001
aF0.001
aF0.001
aF0.001
aF0.001
aF0.001
aF0.001
aF0.001
aF0.001
aF0.001
aF0.001
aF0.001
aF0.001
aF0.001
aF0.001
aF0.001
aF0.001
aF0.001
aF0.001
aF0.0001
aF0.0001
aF0.0001
aF0.0001
aF0.0001
aF0.0001
aF0.0001
aF0.0001
aF0.0001
aF0.0001
aF0.0001
aF0.0001
aF0.0001
aF0.0001
aF0.0001
aF0.0001
aF0.0001
aF0.0001
aF0.0001
aF0.0001
aF0.0001
aF0.0001
aF0.0001
aF0.0001
aF0.0001
aF0.0001
aF0.0001
aF0.0001
aF0.0001
aF0.0001
aF0.0001
aF0.0001
aF0.0001
aF0.0001
aF0.0001
aF0.0001
aF0.0001
aF0.0001
aF0.0001
aF0.0001
aF0.0001
aF0.0001
aF0.0001
aF0.0001
aF0.0001
aF0.0001
aF0.0001
aF0.0001
aF0.0001
aF0.0001
aF0.0001
aF0.0001
aF0.0001
aF0.0001
aF0.0001
aF0.0001
aF0.0001
aF0.0001
aF0.0001
aF0.0001
aF0.0001
aF0.0001
aF0.0001
aF0.0001
aF0.0001
aF0.0001
aF0.0001
aF0.0001
aF0.0001
aF0.0001
aF0.0001
aF0.0001
aF0.0001
aF0.0001
aF0.0001
aF0.0001
aF0.0001
aF0.0001
aF0.0001
aF1e-05
aF1e-05
atp41
tp42
Rp43
aatp44
Rp45
sS'val_outputs'
p46
g19
((lp47
(lp48
g22
ag0
(g23
g24
(g25
(lp49
I0
aF1.0
aF2.0
aF3.0
aF4.0
aF5.0
aF6.0
aF7.0
aF8.0
aF9.0
aF10.0
aF11.0
aF12.0
aF13.0
aF14.0
aF15.0
aF16.0
aF17.0
aF18.0
aF19.0
aF20.0
aF21.0
aF22.0
aF23.0
aF24.0
aF25.0
aF26.0
aF27.0
aF28.0
aF29.0
aF30.0
atp50
tp51
Rp52
aa(lp53
S'accuracy'
p54
ag0
(g23
g24
(S'Accuracy'
p55
(lp56
F0.0510526
aF0.487368
aF0.555263
aF0.563684
aF0.567368
aF0.562632
aF0.541053
aF0.536316
aF0.515789
aF0.537895
aF0.536842
aF0.622105
aF0.62
aF0.618947
aF0.626316
aF0.623158
aF0.625789
aF0.620526
aF0.622632
aF0.625789
aF0.625789
aF0.625263
aF0.625263
aF0.624211
aF0.624737
aF0.625263
aF0.624737
aF0.626316
aF0.624211
aF0.627368
aF0.62579
atp57
tp58
Rp59
aa(lp60
S'loss'
p61
ag0
(g23
g24
(S'SoftmaxWithLoss'
p62
(lp63
F2.94285
aF1.50948
aF1.37688
aF1.34954
aF1.44245
aF1.64702
aF2.04494
aF2.17375
aF2.50944
aF2.43061
aF2.75111
aF1.92406
aF1.95976
aF1.98669
aF1.9826
aF2.02204
aF2.01205
aF2.06803
aF2.03937
aF2.04432
aF2.08148
aF2.07503
aF2.0758
aF2.09003
aF2.06747
aF2.08224
aF2.06221
aF2.06749
aF2.08054
aF2.07124
aF2.09216
atp64
tp65
Rp66
aatp67
Rp68
sS'loaded_snapshot_epoch'
p69
F30.0
sS'pretrained_model'
p70
NsS'deploy_file'
p71
S'deploy.prototxt'
p72
sS'current_iteration'
p73
I2640
sS'gpu_count'
p74
I1
sS'train_epochs'
p75
I30
sS'network'
p76
ccaffe_pb2
NetParameter
p77
(tRp78
(dp79
S'serialized'
p80
S'\n\x05LeNet\xa2\x06#\n\x05mnist\x12\x04Data"\x04data"\x05labelB\x02\x08\x00\xda\x06\x02 @\xa2\x06#\n\x05mnist\x12\x04Data"\x04data"\x05labelB\x02\x08\x01\xda\x06\x02 d\xa2\x06#\n\x05scale\x12\x05Power\x1a\x04data"\x05scale\xd2\x07\x05\x15\xcd\xccL<\xa2\x06O\n\x05conv1\x12\x0bConvolution\x1a\x05scale"\x05conv12\x05\x1d\x00\x00\x80?2\x05\x1d\x00\x00\x00@\xd2\x06\x1c\x08\x14 \x050\x01:\x08\n\x06xavierB\n\n\x08constant\xa2\x06\'\n\x05pool1\x12\x07Pooling\x1a\x05conv1"\x05pool1\xca\x07\x06\x08\x00\x10\x02\x18\x02\xa2\x06O\n\x05conv2\x12\x0bConvolution\x1a\x05pool1"\x05conv22\x05\x1d\x00\x00\x80?2\x05\x1d\x00\x00\x00@\xd2\x06\x1c\x082 \x050\x01:\x08\n\x06xavierB\n\n\x08constant\xa2\x06\'\n\x05pool2\x12\x07Pooling\x1a\x05conv2"\x05pool2\xca\x07\x06\x08\x00\x10\x02\x18\x02\xa2\x06I\n\x03ip1\x12\x0cInnerProduct\x1a\x05pool2"\x03ip12\x05\x1d\x00\x00\x80?2\x05\x1d\x00\x00\x00@\xaa\x07\x19\x08\xf4\x03\x1a\x08\n\x06xavier"\n\n\x08constant\xa2\x06\x17\n\x05relu1\x12\x04ReLU\x1a\x03ip1"\x03ip1\xa2\x06D\n\x03ip2\x12\x0cInnerProduct\x1a\x03ip1"\x03ip22\x05\x1d\x00\x00\x80?2\x05\x1d\x00\x00\x00@\xaa\x07\x16\x1a\x08\n\x06xavier"\n\n\x08constant\xa2\x06.\n\x08accuracy\x12\x08Accuracy\x1a\x03ip2\x1a\x05label"\x08accuracyB\x02\x08\x01\xa2\x06)\n\x04loss\x12\x0fSoftmaxWithLoss\x1a\x03ip2\x1a\x05label"\x04loss'
p81
sbsS'use_mean'
p82
Vimage
p83
sS'job_dir'
p84
S'/usr/share/digits/digits/jobs/20160625-090428-410b'
p85
sS'receiving_val_output'
p86
I00
sS'parents'
p87
NsS'progress'
p88
F1.0
sS'crop_size'
p89
NsS'receiving_train_output'
p90
I00
sS'val_interval'
p91
F1.0
sS'current_epoch'
p92
F30.0
sS'random_seed'
p93
NsS'saving_snapshot'
p94
I00
sS'pickver_task_caffe_train'
p95
I3
sg38
F0.01
sS'loaded_snapshot_file'
p96
S'/usr/share/digits/digits/jobs/20160625-090428-410b/snapshot_iter_2640.caffemodel'
p97
sS'batch_size'
p98
NsS'pickver_task_train'
p99
I2
sS'pickver_task'
p100
I1
sS'lr_policy'
p101
(dp102
S'policy'
p103
Vstep
p104
sS'stepsize'
p105
F33.0
sS'gamma'
p106
F0.1
ssS'job_id'
p107
S'20160625-090428-410b'
p108
sg7
NsS'current_resources'
p109
NsS'selected_gpus'
p110
NsS'solver'
p111
ccaffe_pb2
SolverParameter
p112
(tRp113
(dp114
g80
S'\x18\x13 X-\n\xd7#<0\x0b8\xd0\x14B\x04stepM\xcd\xcc\xcc=]fff?eo\x12\x03:h\xe8\x06pXz\x08snapshot\x88\x01\x01\xc2\x01\x12train_val.prototxt\xf0\x01\x01'
p115
sbsS'snapshot_prefix'
p116
S'snapshot'
p117
sS'traceback'
p118
NsS'status_history'
p119
(lp120
((idigits.status
Status
p121
S'I'
p123
bF1466813068.636051
tp124
a((idigits.status
Status
p125
S'R'
p126
bF1466813069.960493
tp127
a((idigits.status
Status
p128
S'D'
p129
bF1466813135.464479
tp130
asS'last_train_update'
p131
F1466813129.955526
sS'train_val_file'
p132
S'train_val.prototxt'
p133
sS'image_mean'
p134
NsS'log_file'
p135
S'caffe_output.log'
p136
sS'solver_file'
p137
S'solver.prototxt'
p138
sS'solver_type'
p139
VNESTEROV
p140
sbasS'_id'
p141
S'20160625-090428-410b'
p142
sS'pickver_job_model_image_classification'
p143
I1
sS'_name'
p144
Vobj_recog
p145
sS'pickver_job'
p146
I1
sS'form_data'
p147
(dp148
S'form.standard_networks.data'
p149
Vlenet
p150
sS'form.learning_rate.data'
p151
F0.01
sS'form.select_gpus.data'
p152
(lp153
sS'form.framework.data'
p154
Vcaffe
p155
sS'form.dataset.data'
p156
V20160625-090328-4c6a
p157
sS'form.python_layer_from_client.data'
p158
I00
sS'form.lr_multistep_values.data'
p159
V50,85
p160
sS'form.lr_sigmoid_gamma.data'
p161
F0.1
sS'form.lr_policy.data'
p162
g104
sS'form.previous_networks.data'
p163
VNone
p164
sS'form.select_gpu.data'
p165
Vnext
p166
sS'form.method.data'
p167
Vstandard
p168
sS'form.lr_sigmoid_step.data'
p169
F50.0
sS'form.crop_size.data'
p170
NsS'form.select_gpu_count.data'
p171
I1
sS'form.python_layer_server_file.data'
p172
V
p173
sS'form.custom_network.data'
p174
g173
sS'form.solver_type.data'
p175
g140
sS'form.select_gpus_list.data'
p176
g173
sS'form.shuffle.data'
p177
I01
sS'form.lr_inv_power.data'
p178
F0.5
sS'form.lr_step_gamma.data'
p179
F0.1
sS'form.use_mean.data'
p180
g83
sS'form.lr_inv_gamma.data'
p181
F0.1
sS'form.lr_poly_power.data'
p182
F3.0
sS'form.snapshot_interval.data'
p183
F1.0
sS'form.lr_step_size.data'
p184
F33.0
sS'form.custom_network_snapshot.data'
p185
g173
sS'form.batch_size.data'
p186
NsS'form.lr_multistep_gamma.data'
p187
F0.5
sS'form.model_name.data'
p188
g145
sS'form.lr_exp_gamma.data'
p189
F0.95
sS'form.val_interval.data'
p190
F1.0
sS'form.train_epochs.data'
p191
I30
sS'form.random_seed.data'
p192
Nssg88
F1.0
sS'dataset_id'
p193
S'20160625-090328-4c6a'
p194
sS'pickver_job_dataset'
p195
I1
sS'pickver_job_model_image'
p196
I1
sg119
(lp197
((idigits.status
Status
p198
g123
bF1466813068.521777
tp199
a((idigits.status
Status
p200
g126
bF1466813069.666091
tp201
a((idigits.status
Status
p202
g129
bF1466813135.824893
tp203
asb.